target datalayout = "e-m:e-p270:32:32-p271:32:32-p272:64:64-i64:64-i128:128-f80:128-n8:16:32:64-S128"
target triple = "x86_64-unknown-linux-gnu"

%class.par_tactical = type <{ %class.or_else_tactical, %"class.std::__cxx11::basic_string", i32, [4 x i8] }>
%class.or_else_tactical = type { %class.nary_tactical }
%class.nary_tactical = type { %class.tactic.base, %class.ref_vector_core }
%class.tactic.base = type <{ %"class.user_propagator::core", i32 }>
%"class.user_propagator::core" = type { ptr }
%class.ref_vector_core = type { %class.ptr_vector }
%class.ptr_vector = type { %class.vector }
%class.vector = type { ptr }
%"class.std::__cxx11::basic_string" = type { %"struct.std::__cxx11::basic_string<char>::_Alloc_hider", i64, %union.anon }
%"struct.std::__cxx11::basic_string<char>::_Alloc_hider" = type { ptr }
%union.anon = type { i64, [8 x i8] }
%class.tactic = type <{ %"class.user_propagator::core", i32, [4 x i8] }>

; Function Attrs: mustprogress nounwind uwtable
define linkonce_odr hidden void @_ZN6tactic7inc_refEv(ptr noundef nonnull align 8 dereferenceable(12) %this) #5 comdat align 2 {
entry:
  %this.addr = alloca ptr, align 8
  store ptr %this, ptr %this.addr, align 8
  %this1 = load ptr, ptr %this.addr, align 8
  %m_ref_count = getelementptr inbounds %class.tactic, ptr %this1, i32 0, i32 1
  %0 = load i32, ptr %m_ref_count, align 8
  %inc = add i32 %0, 1
  store i32 %inc, ptr %m_ref_count, align 8
  ret void
}

; Function Attrs: mustprogress nounwind uwtable
define linkonce_odr hidden void @_ZN21ref_unmanaged_wrapperI6tacticE7inc_refEPS0_(ptr noundef %n) #5 comdat align 2 {
entry:
  %n.addr = alloca ptr, align 8
  store ptr %n, ptr %n.addr, align 8
  %0 = load ptr, ptr %n.addr, align 8
  %tobool = icmp ne ptr %0, null
  br i1 %tobool, label %if.then, label %if.end

if.then:                                          ; preds = %entry
  %1 = load ptr, ptr %n.addr, align 8
  call void @_ZN6tactic7inc_refEv(ptr noundef nonnull align 8 dereferenceable(12) %1)
  br label %if.end

if.end:                                           ; preds = %if.then, %entry
  ret void
}

; Function Attrs: mustprogress nounwind uwtable
define linkonce_odr hidden void @_ZN6vectorIP6tacticLb0EjEC2Ev(ptr noundef nonnull align 8 dereferenceable(8) %this) unnamed_addr #5 comdat align 2 {
entry:
  %this.addr = alloca ptr, align 8
  store ptr %this, ptr %this.addr, align 8
  %this1 = load ptr, ptr %this.addr, align 8
  %m_data = getelementptr inbounds %class.vector, ptr %this1, i32 0, i32 0
  store ptr null, ptr %m_data, align 8
  ret void
}

; Function Attrs: mustprogress nounwind uwtable
define linkonce_odr hidden void @_ZN15user_propagator4coreD2Ev(ptr noundef nonnull align 8 dereferenceable(8) %this) unnamed_addr #5 comdat align 2 {
entry:
  %this.addr = alloca ptr, align 8
  store ptr %this, ptr %this.addr, align 8
  ret void
}

; Function Attrs: mustprogress uwtable
define linkonce_odr hidden noundef nonnull align 8 dereferenceable(8) ptr @_ZN6vectorIP6tacticLb0EjE9push_backERKS1_(ptr noundef nonnull align 8 dereferenceable(8) %this, ptr noundef nonnull align 8 dereferenceable(8) %elem) #4 comdat align 2 {
entry:
  %this.addr = alloca ptr, align 8
  %elem.addr = alloca ptr, align 8
  store ptr %this, ptr %this.addr, align 8
  store ptr %elem, ptr %elem.addr, align 8
  %this1 = load ptr, ptr %this.addr, align 8
  %m_data = getelementptr inbounds %class.vector, ptr %this1, i32 0, i32 0
  %0 = load ptr, ptr %m_data, align 8
  %cmp = icmp eq ptr %0, null
  br i1 %cmp, label %if.then, label %lor.lhs.false

lor.lhs.false:                                    ; preds = %entry
  %m_data2 = getelementptr inbounds %class.vector, ptr %this1, i32 0, i32 0
  %1 = load ptr, ptr %m_data2, align 8
  %arrayidx = getelementptr inbounds i32, ptr %1, i64 -1
  %2 = load i32, ptr %arrayidx, align 4
  %m_data3 = getelementptr inbounds %class.vector, ptr %this1, i32 0, i32 0
  %3 = load ptr, ptr %m_data3, align 8
  %arrayidx4 = getelementptr inbounds i32, ptr %3, i64 -2
  %4 = load i32, ptr %arrayidx4, align 4
  %cmp5 = icmp eq i32 %2, %4
  br i1 %cmp5, label %if.then, label %if.end

if.then:                                          ; preds = %lor.lhs.false, %entry
  call void @_ZN6vectorIP6tacticLb0EjE13expand_vectorEv(ptr noundef nonnull align 8 dereferenceable(8) %this1)
  br label %if.end

if.end:                                           ; preds = %if.then, %lor.lhs.false
  %m_data6 = getelementptr inbounds %class.vector, ptr %this1, i32 0, i32 0
  %5 = load ptr, ptr %m_data6, align 8
  %m_data7 = getelementptr inbounds %class.vector, ptr %this1, i32 0, i32 0
  %6 = load ptr, ptr %m_data7, align 8
  %arrayidx8 = getelementptr inbounds i32, ptr %6, i64 -1
  %7 = load i32, ptr %arrayidx8, align 4
  %idx.ext = zext i32 %7 to i64
  %add.ptr = getelementptr inbounds ptr, ptr %5, i64 %idx.ext
  %8 = load ptr, ptr %elem.addr, align 8
  %9 = load ptr, ptr %8, align 8
  store ptr %9, ptr %add.ptr, align 8
  %m_data9 = getelementptr inbounds %class.vector, ptr %this1, i32 0, i32 0
  %10 = load ptr, ptr %m_data9, align 8
  %arrayidx10 = getelementptr inbounds i32, ptr %10, i64 -1
  %11 = load i32, ptr %arrayidx10, align 4
  %inc = add i32 %11, 1
  store i32 %inc, ptr %arrayidx10, align 4
  ret ptr %this1
}

; Function Attrs: mustprogress uwtable
define linkonce_odr hidden void @_ZN15ref_vector_coreI6tactic21ref_unmanaged_wrapperIS0_EE7inc_refEPS0_(ptr noundef nonnull align 8 dereferenceable(8) %this, ptr noundef %o) #4 comdat align 2 {
entry:
  %this.addr = alloca ptr, align 8
  %o.addr = alloca ptr, align 8
  store ptr %this, ptr %this.addr, align 8
  store ptr %o, ptr %o.addr, align 8
  %0 = load ptr, ptr %o.addr, align 8
  call void @_ZN21ref_unmanaged_wrapperI6tacticE7inc_refEPS0_(ptr noundef %0)
  ret void
}

; Function Attrs: mustprogress nounwind uwtable
define linkonce_odr hidden void @_ZN10ptr_vectorI6tacticEC2Ev(ptr noundef nonnull align 8 dereferenceable(8) %this) unnamed_addr #5 comdat align 2 {
entry:
  %this.addr = alloca ptr, align 8
  store ptr %this, ptr %this.addr, align 8
  %this1 = load ptr, ptr %this.addr, align 8
  %0 = getelementptr inbounds i8, ptr %this1, i64 0
  call void @llvm.memset.p0.i64(ptr align 8 %0, i8 0, i64 8, i1 false)
  call void @_ZN6vectorIP6tacticLb0EjEC2Ev(ptr noundef nonnull align 8 dereferenceable(8) %this1) #3
  ret void
}

; Function Attrs: mustprogress nounwind uwtable
define linkonce_odr hidden void @_ZN15user_propagator4coreC2Ev(ptr noundef nonnull align 8 dereferenceable(8) %this) unnamed_addr #5 comdat align 2 {
entry:
  %this.addr = alloca ptr, align 8
  store ptr %this, ptr %this.addr, align 8
  %this1 = load ptr, ptr %this.addr, align 8
  store ptr getelementptr inbounds ({ [14 x ptr] }, ptr @_ZTVN15user_propagator4coreE, i32 0, i32 0, i32 2), ptr %this1, align 8
  ret void
}

; Function Attrs: mustprogress nounwind uwtable
define linkonce_odr hidden void @_ZN6tacticD2Ev(ptr noundef nonnull align 8 dereferenceable(12) %this) unnamed_addr #5 comdat align 2 {
entry:
  %this.addr = alloca ptr, align 8
  store ptr %this, ptr %this.addr, align 8
  %this1 = load ptr, ptr %this.addr, align 8
  call void @_ZN15user_propagator4coreD2Ev(ptr noundef nonnull align 8 dereferenceable(8) %this1) #3
  ret void
}

; Function Attrs: mustprogress uwtable
define linkonce_odr hidden noundef nonnull align 8 dereferenceable(8) ptr @_ZN15ref_vector_coreI6tactic21ref_unmanaged_wrapperIS0_EE9push_backEPS0_(ptr noundef nonnull align 8 dereferenceable(8) %this, ptr noundef %n) #4 comdat align 2 {
entry:
  %this.addr = alloca ptr, align 8
  %n.addr = alloca ptr, align 8
  store ptr %this, ptr %this.addr, align 8
  store ptr %n, ptr %n.addr, align 8
  %this1 = load ptr, ptr %this.addr, align 8
  %0 = load ptr, ptr %n.addr, align 8
  call void @_ZN15ref_vector_coreI6tactic21ref_unmanaged_wrapperIS0_EE7inc_refEPS0_(ptr noundef nonnull align 8 dereferenceable(8) %this1, ptr noundef %0)
  %m_nodes = getelementptr inbounds %class.ref_vector_core, ptr %this1, i32 0, i32 0
  %call = call noundef nonnull align 8 dereferenceable(8) ptr @_ZN6vectorIP6tacticLb0EjE9push_backERKS1_(ptr noundef nonnull align 8 dereferenceable(8) %m_nodes, ptr noundef nonnull align 8 dereferenceable(8) %n.addr)
  ret ptr %this1
}

; Function Attrs: mustprogress uwtable
define linkonce_odr hidden void @_ZN15ref_vector_coreI6tactic21ref_unmanaged_wrapperIS0_EEC2Ev(ptr noundef nonnull align 8 dereferenceable(8) %this) unnamed_addr #4 comdat align 2 {
entry:
  %this.addr = alloca ptr, align 8
  store ptr %this, ptr %this.addr, align 8
  %this1 = load ptr, ptr %this.addr, align 8
  %m_nodes = getelementptr inbounds %class.ref_vector_core, ptr %this1, i32 0, i32 0
  call void @_ZN10ptr_vectorI6tacticEC2Ev(ptr noundef nonnull align 8 dereferenceable(8) %m_nodes)
  ret void
}

; Function Attrs: mustprogress nounwind uwtable
define linkonce_odr hidden void @_ZN6tacticC2Ev(ptr noundef nonnull align 8 dereferenceable(12) %this) unnamed_addr #5 comdat align 2 {
entry:
  %this.addr = alloca ptr, align 8
  store ptr %this, ptr %this.addr, align 8
  %this1 = load ptr, ptr %this.addr, align 8
  call void @_ZN15user_propagator4coreC2Ev(ptr noundef nonnull align 8 dereferenceable(8) %this1) #3
  store ptr getelementptr inbounds ({ [25 x ptr] }, ptr @_ZTV6tactic, i32 0, i32 0, i32 2), ptr %this1, align 8
  %m_ref_count = getelementptr inbounds %class.tactic, ptr %this1, i32 0, i32 1
  store i32 0, ptr %m_ref_count, align 8
  ret void
}

; Function Attrs: mustprogress uwtable
define linkonce_odr hidden void @_ZN13nary_tacticalC2EjPKP6tactic(ptr noundef nonnull align 8 dereferenceable(24) %this, i32 noundef %num, ptr noundef %ts) unnamed_addr #4 comdat align 2 personality ptr @__gxx_personality_v0 {
entry:
  %this.addr = alloca ptr, align 8
  %num.addr = alloca i32, align 4
  %ts.addr = alloca ptr, align 8
  %exn.slot = alloca ptr, align 8
  %ehselector.slot = alloca i32, align 4
  %i = alloca i32, align 4
  store ptr %this, ptr %this.addr, align 8
  store i32 %num, ptr %num.addr, align 4
  store ptr %ts, ptr %ts.addr, align 8
  %this1 = load ptr, ptr %this.addr, align 8
  call void @_ZN6tacticC2Ev(ptr noundef nonnull align 8 dereferenceable(12) %this1)
  store ptr getelementptr inbounds ({ [25 x ptr] }, ptr @_ZTV13nary_tactical, i32 0, i32 0, i32 2), ptr %this1, align 8
  %m_ts = getelementptr inbounds %class.nary_tactical, ptr %this1, i32 0, i32 1
  invoke void @_ZN15ref_vector_coreI6tactic21ref_unmanaged_wrapperIS0_EEC2Ev(ptr noundef nonnull align 8 dereferenceable(8) %m_ts)
          to label %invoke.cont unwind label %lpad

invoke.cont:                                      ; preds = %entry
  store i32 0, ptr %i, align 4
  br label %for.cond

for.cond:                                         ; preds = %for.inc, %invoke.cont
  %0 = load i32, ptr %i, align 4
  %1 = load i32, ptr %num.addr, align 4
  %cmp = icmp ult i32 %0, %1
  br i1 %cmp, label %for.body, label %for.end

for.body:                                         ; preds = %for.cond
  %m_ts2 = getelementptr inbounds %class.nary_tactical, ptr %this1, i32 0, i32 1
  %2 = load ptr, ptr %ts.addr, align 8
  %3 = load i32, ptr %i, align 4
  %idxprom = zext i32 %3 to i64
  %arrayidx = getelementptr inbounds ptr, ptr %2, i64 %idxprom
  %4 = load ptr, ptr %arrayidx, align 8
  %call = invoke noundef nonnull align 8 dereferenceable(8) ptr @_ZN15ref_vector_coreI6tactic21ref_unmanaged_wrapperIS0_EE9push_backEPS0_(ptr noundef nonnull align 8 dereferenceable(8) %m_ts2, ptr noundef %4)
          to label %invoke.cont4 unwind label %lpad3

invoke.cont4:                                     ; preds = %for.body
  br label %for.inc

for.inc:                                          ; preds = %invoke.cont4
  %5 = load i32, ptr %i, align 4
  %inc = add i32 %5, 1
  store i32 %inc, ptr %i, align 4
  br label %for.cond, !llvm.loop !23

lpad:                                             ; preds = %entry
  %6 = landingpad { ptr, i32 }
          cleanup
  %7 = extractvalue { ptr, i32 } %6, 0
  store ptr %7, ptr %exn.slot, align 8
  %8 = extractvalue { ptr, i32 } %6, 1
  store i32 %8, ptr %ehselector.slot, align 4
  br label %ehcleanup

lpad3:                                            ; preds = %for.body
  %9 = landingpad { ptr, i32 }
          cleanup
  %10 = extractvalue { ptr, i32 } %9, 0
  store ptr %10, ptr %exn.slot, align 8
  %11 = extractvalue { ptr, i32 } %9, 1
  store i32 %11, ptr %ehselector.slot, align 4
  call void @_ZN15ref_vector_coreI6tactic21ref_unmanaged_wrapperIS0_EED2Ev(ptr noundef nonnull align 8 dereferenceable(8) %m_ts) #3
  br label %ehcleanup

for.end:                                          ; preds = %for.cond
  ret void

ehcleanup:                                        ; preds = %lpad3, %lpad
  call void @_ZN6tacticD2Ev(ptr noundef nonnull align 8 dereferenceable(12) %this1) #3
  br label %eh.resume

eh.resume:                                        ; preds = %ehcleanup
  %exn = load ptr, ptr %exn.slot, align 8
  %sel = load i32, ptr %ehselector.slot, align 4
  %lpad.val = insertvalue { ptr, i32 } poison, ptr %exn, 0
  %lpad.val5 = insertvalue { ptr, i32 } %lpad.val, i32 %sel, 1
  resume { ptr, i32 } %lpad.val5
}

; Function Attrs: mustprogress uwtable
define linkonce_odr hidden void @_ZN16or_else_tacticalC2EjPKP6tactic(ptr noundef nonnull align 8 dereferenceable(24) %this, i32 noundef %num, ptr noundef %ts) unnamed_addr #4 comdat align 2 {
entry:
  %this.addr = alloca ptr, align 8
  %num.addr = alloca i32, align 4
  %ts.addr = alloca ptr, align 8
  store ptr %this, ptr %this.addr, align 8
  store i32 %num, ptr %num.addr, align 4
  store ptr %ts, ptr %ts.addr, align 8
  %this1 = load ptr, ptr %this.addr, align 8
  %0 = load i32, ptr %num.addr, align 4
  %1 = load ptr, ptr %ts.addr, align 8
  call void @_ZN13nary_tacticalC2EjPKP6tactic(ptr noundef nonnull align 8 dereferenceable(24) %this1, i32 noundef %0, ptr noundef %1)
  store ptr getelementptr inbounds ({ [25 x ptr] }, ptr @_ZTV16or_else_tactical, i32 0, i32 0, i32 2), ptr %this1, align 8
  ret void
}

; Function Attrs: mustprogress uwtable
define linkonce_odr hidden void @_ZN12par_tacticalC2EjPKP6tactic(ptr noundef nonnull align 8 dereferenceable(60) %this, i32 noundef %num, ptr noundef %ts) unnamed_addr #4 comdat align 2 {
entry:
  %this.addr = alloca ptr, align 8
  %num.addr = alloca i32, align 4
  %ts.addr = alloca ptr, align 8
  store ptr %this, ptr %this.addr, align 8
  store i32 %num, ptr %num.addr, align 4
  store ptr %ts, ptr %ts.addr, align 8
  %this1 = load ptr, ptr %this.addr, align 8
  %0 = load i32, ptr %num.addr, align 4
  %1 = load ptr, ptr %ts.addr, align 8
  call void @_ZN16or_else_tacticalC2EjPKP6tactic(ptr noundef nonnull align 8 dereferenceable(24) %this1, i32 noundef %0, ptr noundef %1)
  store ptr getelementptr inbounds ({ [25 x ptr] }, ptr @_ZTV12par_tactical, i32 0, i32 0, i32 2), ptr %this1, align 8
  %ex_msg = getelementptr inbounds %class.par_tactical, ptr %this1, i32 0, i32 1
  call void @_ZNSt7__cxx1112basic_stringIcSt11char_traitsIcESaIcEEC1Ev(ptr noundef nonnull align 8 dereferenceable(32) %ex_msg) #3
  %error_code = getelementptr inbounds %class.par_tactical, ptr %this1, i32 0, i32 2
  store i32 0, ptr %error_code, align 8
  ret void
}

; Function Attrs: mustprogress uwtable
define hidden noundef ptr @_Z3parjPKP6tactic(i32 noundef %num, ptr noundef %ts) #4 {
entry:
  %num.addr = alloca i32, align 4
  %ts.addr = alloca ptr, align 8
  store i32 %num, ptr %num.addr, align 4
  store ptr %ts, ptr %ts.addr, align 8
  %call = call noalias noundef ptr @_ZN6memory8allocateEm(i64 noundef 64)
  %0 = load i32, ptr %num.addr, align 4
  %1 = load ptr, ptr %ts.addr, align 8
  call void @_ZN12par_tacticalC2EjPKP6tactic(ptr noundef nonnull align 8 dereferenceable(60) %call, i32 noundef %0, ptr noundef %1)
  ret ptr %call
}